; Function Attrs: mustprogress nofree norecurse nosync nounwind memory(argmem: readwrite) uwtable
define dso_local void @meshopt_decodeFilterOct(ptr noundef captures(none) %0, i64 noundef %1, i64 noundef %2) local_unnamed_addr #0 {
  %4 = alloca [16 x i16], align 16
  %.sroa.0.i = alloca <2 x i64>, align 16
  %5 = icmp eq i64 %2, 4
  %6 = and i64 %1, -4
  %.not.i.i = icmp eq i64 %6, 0
  br i1 %5, label %7, label %120

7:                                                ; preds = %3
  br i1 %.not.i.i, label %_ZN7meshoptL19decodeFilterOctSimdEPam.exit.i, label %.lr.ph.i.i

.lr.ph.i.i:                                       ; preds = %7, %.lr.ph.i.i
  %.042.i.i = phi i64 [ %62, %.lr.ph.i.i ], [ 0, %7 ]
  %8 = shl i64 %.042.i.i, 2
  %9 = getelementptr inbounds nuw i8, ptr %0, i64 %8
  %10 = load <2 x i64>, ptr %9, align 1, !tbaa !4
  %11 = bitcast <2 x i64> %10 to <4 x i32>
  %12 = shl <4 x i32> %11, splat (i32 24)
  %13 = ashr exact <4 x i32> %12, splat (i32 24)
  %14 = shl <4 x i32> %11, splat (i32 16)
  %15 = ashr <4 x i32> %14, splat (i32 24)
  %16 = shl <4 x i32> %11, splat (i32 8)
  %17 = ashr <4 x i32> %16, splat (i32 24)
  %18 = sitofp <4 x i32> %13 to <4 x float>
  %19 = sitofp <4 x i32> %15 to <4 x float>
  %20 = sitofp <4 x i32> %17 to <4 x float>
  %21 = tail call noundef <4 x float> @llvm.fabs.v4f32(<4 x float> %18)
  %22 = tail call noundef <4 x float> @llvm.fabs.v4f32(<4 x float> %19)
  %23 = fadd <4 x float> %21, %22
  %24 = fsub <4 x float> %20, %23
  %25 = tail call noundef <4 x float> @llvm.x86.sse.min.ps(<4 x float> %24, <4 x float> zeroinitializer)
  %26 = bitcast <4 x float> %18 to <4 x i32>
  %27 = and <4 x i32> %26, splat (i32 -2147483648)
  %28 = bitcast <4 x float> %25 to <4 x i32>
  %29 = xor <4 x i32> %27, %28
  %30 = bitcast <4 x i32> %29 to <4 x float>
  %31 = fadd <4 x float> %18, %30
  %32 = bitcast <4 x float> %19 to <4 x i32>
  %33 = and <4 x i32> %32, splat (i32 -2147483648)
  %34 = xor <4 x i32> %33, %28
  %35 = bitcast <4 x i32> %34 to <4 x float>
  %36 = fadd <4 x float> %19, %35
  %37 = fmul <4 x float> %31, %31
  %38 = fmul <4 x float> %36, %36
  %39 = fmul <4 x float> %24, %24
  %40 = fadd <4 x float> %39, %38
  %41 = fadd <4 x float> %37, %40
  %42 = tail call noundef <4 x float> @llvm.x86.sse.rsqrt.ps(<4 x float> %41)
  %43 = fmul <4 x float> %42, splat (float 1.270000e+02)
  %44 = fmul <4 x float> %43, %31
  %45 = tail call <4 x i32> @llvm.x86.sse2.cvtps2dq(<4 x float> %44)
  %46 = bitcast <4 x i32> %45 to <2 x i64>
  %47 = fmul <4 x float> %43, %36
  %48 = tail call <4 x i32> @llvm.x86.sse2.cvtps2dq(<4 x float> %47)
  %49 = fmul <4 x float> %43, %24
  %50 = tail call <4 x i32> @llvm.x86.sse2.cvtps2dq(<4 x float> %49)
  %51 = and <2 x i64> %10, splat (i64 -72057589759737856)
  %52 = and <2 x i64> %46, splat (i64 1095216660735)
  %53 = or disjoint <2 x i64> %52, %51
  %54 = shl <4 x i32> %48, splat (i32 8)
  %55 = bitcast <4 x i32> %54 to <2 x i64>
  %56 = and <2 x i64> %55, splat (i64 280375465148160)
  %57 = or disjoint <2 x i64> %53, %56
  %58 = shl <4 x i32> %50, splat (i32 16)
  %59 = bitcast <4 x i32> %58 to <2 x i64>
  %60 = and <2 x i64> %59, splat (i64 71776119077928960)
  %61 = or disjoint <2 x i64> %57, %60
  store <2 x i64> %61, ptr %9, align 1, !tbaa !4
  %62 = add nuw i64 %.042.i.i, 4
  %63 = icmp ult i64 %62, %6
  br i1 %63, label %.lr.ph.i.i, label %_ZN7meshoptL19decodeFilterOctSimdEPam.exit.i, !llvm.loop !7

_ZN7meshoptL19decodeFilterOctSimdEPam.exit.i:     ; preds = %.lr.ph.i.i, %7
  %.not.i = icmp eq i64 %6, %1
  br i1 %.not.i, label %_ZN7meshoptL12dispatchSimdIaEEvPFvPT_mES2_mm.exit, label %64

64:                                               ; preds = %_ZN7meshoptL19decodeFilterOctSimdEPam.exit.i
  call void @llvm.lifetime.start.p0(i64 16, ptr nonnull %.sroa.0.i)
  store <2 x i64> zeroinitializer, ptr %.sroa.0.i, align 16
  %65 = and i64 %1, 3
  %66 = shl nuw nsw i64 %65, 2
  %67 = shl i64 %6, 2
  %68 = getelementptr inbounds nuw i8, ptr %0, i64 %67
  call void @llvm.memcpy.p0.p0.i64(ptr nonnull align 16 %.sroa.0.i, ptr align 1 %68, i64 %66, i1 false)
  %.not.i20.i = icmp eq i64 %65, 0
  br i1 %.not.i20.i, label %_ZN7meshoptL19decodeFilterOctSimdEPam.exit23.i, label %.lr.ph.i21.i

.lr.ph.i21.i:                                     ; preds = %64
  %.sroa.0.i.0..sroa.0.i.0..sroa.0.i.0..sroa.0.0..sroa.0.0..i = load <2 x i64>, ptr %.sroa.0.i, align 16, !tbaa !4
  %69 = bitcast <2 x i64> %.sroa.0.i.0..sroa.0.i.0..sroa.0.i.0..sroa.0.0..sroa.0.0..i to <4 x i32>
  %70 = shl <4 x i32> %69, splat (i32 24)
  %71 = ashr exact <4 x i32> %70, splat (i32 24)
  %72 = shl <4 x i32> %69, splat (i32 16)
  %73 = ashr <4 x i32> %72, splat (i32 24)
  %74 = shl <4 x i32> %69, splat (i32 8)
  %75 = ashr <4 x i32> %74, splat (i32 24)
  %76 = sitofp <4 x i32> %71 to <4 x float>
  %77 = sitofp <4 x i32> %73 to <4 x float>
  %78 = sitofp <4 x i32> %75 to <4 x float>
  %79 = tail call noundef <4 x float> @llvm.fabs.v4f32(<4 x float> %76)
  %80 = tail call noundef <4 x float> @llvm.fabs.v4f32(<4 x float> %77)
  %81 = fadd <4 x float> %79, %80
  %82 = fsub <4 x float> %78, %81
  %83 = tail call noundef <4 x float> @llvm.x86.sse.min.ps(<4 x float> %82, <4 x float> zeroinitializer)
  %84 = bitcast <4 x float> %76 to <4 x i32>
  %85 = and <4 x i32> %84, splat (i32 -2147483648)
  %86 = bitcast <4 x float> %83 to <4 x i32>
  %87 = xor <4 x i32> %85, %86
  %88 = bitcast <4 x i32> %87 to <4 x float>
  %89 = fadd <4 x float> %76, %88
  %90 = bitcast <4 x float> %77 to <4 x i32>
  %91 = and <4 x i32> %90, splat (i32 -2147483648)
  %92 = xor <4 x i32> %91, %86
  %93 = bitcast <4 x i32> %92 to <4 x float>
  %94 = fadd <4 x float> %77, %93
  %95 = fmul <4 x float> %89, %89
  %96 = fmul <4 x float> %94, %94
  %97 = fmul <4 x float> %82, %82
  %98 = fadd <4 x float> %97, %96
  %99 = fadd <4 x float> %95, %98
  %100 = tail call noundef <4 x float> @llvm.x86.sse.rsqrt.ps(<4 x float> %99)
  %101 = fmul <4 x float> %100, splat (float 1.270000e+02)
  %102 = fmul <4 x float> %101, %89
  %103 = tail call <4 x i32> @llvm.x86.sse2.cvtps2dq(<4 x float> %102)
  %104 = bitcast <4 x i32> %103 to <2 x i64>
  %105 = fmul <4 x float> %101, %94
  %106 = tail call <4 x i32> @llvm.x86.sse2.cvtps2dq(<4 x float> %105)
  %107 = fmul <4 x float> %101, %82
  %108 = tail call <4 x i32> @llvm.x86.sse2.cvtps2dq(<4 x float> %107)
  %109 = and <2 x i64> %.sroa.0.i.0..sroa.0.i.0..sroa.0.i.0..sroa.0.0..sroa.0.0..i, splat (i64 -72057589759737856)
  %110 = and <2 x i64> %104, splat (i64 1095216660735)
  %111 = or disjoint <2 x i64> %110, %109
  %112 = shl <4 x i32> %106, splat (i32 8)
  %113 = bitcast <4 x i32> %112 to <2 x i64>
  %114 = and <2 x i64> %113, splat (i64 280375465148160)
  %115 = or disjoint <2 x i64> %111, %114
  %116 = shl <4 x i32> %108, splat (i32 16)
  %117 = bitcast <4 x i32> %116 to <2 x i64>
  %118 = and <2 x i64> %117, splat (i64 71776119077928960)
  %119 = or disjoint <2 x i64> %115, %118
  store <2 x i64> %119, ptr %.sroa.0.i, align 16, !tbaa !4
  br label %_ZN7meshoptL19decodeFilterOctSimdEPam.exit23.i, !llvm.loop !7

_ZN7meshoptL19decodeFilterOctSimdEPam.exit23.i:   ; preds = %.lr.ph.i21.i, %64
  call void @llvm.memcpy.p0.p0.i64(ptr align 1 %68, ptr nonnull align 16 %.sroa.0.i, i64 %66, i1 false)
  call void @llvm.lifetime.end.p0(i64 16, ptr nonnull %.sroa.0.i)
  br label %_ZN7meshoptL12dispatchSimdIaEEvPFvPT_mES2_mm.exit

120:                                              ; preds = %3
  br i1 %.not.i.i, label %_ZN7meshoptL19decodeFilterOctSimdEPsm.exit11, label %.lr.ph.i8

.lr.ph.i8:                                        ; preds = %120, %.lr.ph.i8
  %.055.i9 = phi i64 [ %185, %.lr.ph.i8 ], [ 0, %120 ]
  %.idx.i10 = shl i64 %.055.i9, 3
  %121 = getelementptr inbounds nuw i8, ptr %0, i64 %.idx.i10
  %122 = load <4 x float>, ptr %121, align 1, !tbaa !4
  %123 = shl i64 %.055.i9, 2
  %124 = or disjoint i64 %123, 8
  %125 = getelementptr inbounds nuw i16, ptr %0, i64 %124
  %126 = load <4 x float>, ptr %125, align 1, !tbaa !4
  %127 = shufflevector <4 x float> %122, <4 x float> %126, <4 x i32> <i32 0, i32 2, i32 4, i32 6>
  %128 = bitcast <4 x float> %127 to <4 x i32>
  %129 = shl <4 x i32> %128, splat (i32 16)
  %130 = ashr exact <4 x i32> %129, splat (i32 16)
  %131 = ashr <4 x i32> %128, splat (i32 16)
  %132 = shufflevector <4 x float> %122, <4 x float> %126, <4 x i32> <i32 1, i32 3, i32 5, i32 7>
  %133 = sitofp <4 x i32> %130 to <4 x float>
  %134 = sitofp <4 x i32> %131 to <4 x float>
  %135 = bitcast <4 x float> %132 to <4 x i32>
  %136 = and <4 x i32> %135, splat (i32 32767)
  %137 = uitofp nneg <4 x i32> %136 to <4 x float>
  %138 = tail call noundef <4 x float> @llvm.fabs.v4f32(<4 x float> %133)
  %139 = tail call noundef <4 x float> @llvm.fabs.v4f32(<4 x float> %134)
  %140 = fadd <4 x float> %139, %138
  %141 = fsub <4 x float> %137, %140
  %142 = tail call noundef <4 x float> @llvm.x86.sse.min.ps(<4 x float> %141, <4 x float> zeroinitializer)
  %143 = bitcast <4 x float> %133 to <4 x i32>
  %144 = and <4 x i32> %143, splat (i32 -2147483648)
  %145 = bitcast <4 x float> %142 to <4 x i32>
  %146 = xor <4 x i32> %144, %145
  %147 = bitcast <4 x i32> %146 to <4 x float>
  %148 = fadd <4 x float> %133, %147
  %149 = bitcast <4 x float> %134 to <4 x i32>
  %150 = and <4 x i32> %149, splat (i32 -2147483648)
  %151 = xor <4 x i32> %150, %145
  %152 = bitcast <4 x i32> %151 to <4 x float>
  %153 = fadd <4 x float> %134, %152
  %154 = fmul <4 x float> %148, %148
  %155 = fmul <4 x float> %153, %153
  %156 = fmul <4 x float> %141, %141
  %157 = fadd <4 x float> %156, %155
  %158 = fadd <4 x float> %154, %157
  %159 = tail call noundef <4 x float> @llvm.sqrt.v4f32(<4 x float> %158)
  %160 = fdiv <4 x float> splat (float 3.276700e+04), %159
  %161 = fmul <4 x float> %148, %160
  %162 = tail call <4 x i32> @llvm.x86.sse2.cvtps2dq(<4 x float> %161)
  %163 = bitcast <4 x i32> %162 to <2 x i64>
  %164 = fmul <4 x float> %153, %160
  %165 = tail call <4 x i32> @llvm.x86.sse2.cvtps2dq(<4 x float> %164)
  %166 = fmul <4 x float> %141, %160
  %167 = tail call <4 x i32> @llvm.x86.sse2.cvtps2dq(<4 x float> %166)
  %168 = and <2 x i64> %163, splat (i64 281470681808895)
  %169 = shl <4 x i32> %167, splat (i32 16)
  %170 = bitcast <4 x i32> %169 to <2 x i64>
  %171 = or disjoint <2 x i64> %168, %170
  %172 = bitcast <2 x i64> %171 to <8 x i16>
  %173 = bitcast <4 x i32> %165 to <8 x i16>
  %174 = and <8 x i16> %173, <i16 -1, i16 0, i16 -1, i16 0, i16 -1, i16 0, i16 -1, i16 0>
  %175 = shufflevector <8 x i16> %172, <8 x i16> %174, <8 x i32> <i32 0, i32 8, i32 1, i32 9, i32 2, i32 10, i32 3, i32 11>
  %176 = bitcast <8 x i16> %175 to <2 x i64>
  %177 = shufflevector <8 x i16> %172, <8 x i16> %174, <8 x i32> <i32 4, i32 12, i32 5, i32 13, i32 6, i32 14, i32 7, i32 15>
  %178 = bitcast <8 x i16> %177 to <2 x i64>
  %179 = bitcast <4 x float> %122 to <2 x i64>
  %180 = and <2 x i64> %179, splat (i64 -281474976710656)
  %181 = or disjoint <2 x i64> %180, %176
  %182 = bitcast <4 x float> %126 to <2 x i64>
  %183 = and <2 x i64> %182, splat (i64 -281474976710656)
  %184 = or disjoint <2 x i64> %183, %178
  store <2 x i64> %181, ptr %121, align 1, !tbaa !4
  store <2 x i64> %184, ptr %125, align 1, !tbaa !4
  %185 = add nuw i64 %.055.i9, 4
  %186 = icmp ult i64 %185, %6
  br i1 %186, label %.lr.ph.i8, label %_ZN7meshoptL19decodeFilterOctSimdEPsm.exit11, !llvm.loop !9

_ZN7meshoptL19decodeFilterOctSimdEPsm.exit11:     ; preds = %.lr.ph.i8, %120
  %.not.i4 = icmp eq i64 %6, %1
  br i1 %.not.i4, label %_ZN7meshoptL12dispatchSimdIaEEvPFvPT_mES2_mm.exit, label %187

187:                                              ; preds = %_ZN7meshoptL19decodeFilterOctSimdEPsm.exit11
  call void @llvm.lifetime.start.p0(i64 32, ptr nonnull %4)
  call void @llvm.memset.p0.i64(ptr noundef nonnull align 16 dereferenceable(32) %4, i8 0, i64 32, i1 false)
  %188 = and i64 %1, 3
  %189 = shl nuw nsw i64 %188, 3
  %.idx.i = shl i64 %6, 3
  %190 = getelementptr inbounds nuw i8, ptr %0, i64 %.idx.i
  call void @llvm.memcpy.p0.p0.i64(ptr nonnull align 16 %4, ptr align 2 %190, i64 %189, i1 false)
  %.not.i5 = icmp eq i64 %188, 0
  br i1 %.not.i5, label %_ZN7meshoptL19decodeFilterOctSimdEPsm.exit, label %.lr.ph.i

.lr.ph.i:                                         ; preds = %187
  %.0..0. = load <4 x float>, ptr %4, align 16, !tbaa !4
  %.16..16..sroa_idx = getelementptr inbounds nuw i8, ptr %4, i64 16
  %.16..16. = load <4 x float>, ptr %.16..16..sroa_idx, align 16, !tbaa !4
  %191 = shufflevector <4 x float> %.0..0., <4 x float> %.16..16., <4 x i32> <i32 0, i32 2, i32 4, i32 6>
  %192 = bitcast <4 x float> %191 to <4 x i32>
  %193 = shl <4 x i32> %192, splat (i32 16)
  %194 = ashr exact <4 x i32> %193, splat (i32 16)
  %195 = ashr <4 x i32> %192, splat (i32 16)
  %196 = shufflevector <4 x float> %.0..0., <4 x float> %.16..16., <4 x i32> <i32 1, i32 3, i32 5, i32 7>
  %197 = sitofp <4 x i32> %194 to <4 x float>
  %198 = sitofp <4 x i32> %195 to <4 x float>
  %199 = bitcast <4 x float> %196 to <4 x i32>
  %200 = and <4 x i32> %199, splat (i32 32767)
  %201 = uitofp nneg <4 x i32> %200 to <4 x float>
  %202 = tail call noundef <4 x float> @llvm.fabs.v4f32(<4 x float> %197)
  %203 = tail call noundef <4 x float> @llvm.fabs.v4f32(<4 x float> %198)
  %204 = fadd <4 x float> %203, %202
  %205 = fsub <4 x float> %201, %204
  %206 = tail call noundef <4 x float> @llvm.x86.sse.min.ps(<4 x float> %205, <4 x float> zeroinitializer)
  %207 = bitcast <4 x float> %197 to <4 x i32>
  %208 = and <4 x i32> %207, splat (i32 -2147483648)
  %209 = bitcast <4 x float> %206 to <4 x i32>
  %210 = xor <4 x i32> %208, %209
  %211 = bitcast <4 x i32> %210 to <4 x float>
  %212 = fadd <4 x float> %197, %211
  %213 = bitcast <4 x float> %198 to <4 x i32>
  %214 = and <4 x i32> %213, splat (i32 -2147483648)
  %215 = xor <4 x i32> %214, %209
  %216 = bitcast <4 x i32> %215 to <4 x float>
  %217 = fadd <4 x float> %198, %216
  %218 = fmul <4 x float> %212, %212
  %219 = fmul <4 x float> %217, %217
  %220 = fmul <4 x float> %205, %205
  %221 = fadd <4 x float> %220, %219
  %222 = fadd <4 x float> %218, %221
  %223 = tail call noundef <4 x float> @llvm.sqrt.v4f32(<4 x float> %222)
  %224 = fdiv <4 x float> splat (float 3.276700e+04), %223
  %225 = fmul <4 x float> %212, %224
  %226 = tail call <4 x i32> @llvm.x86.sse2.cvtps2dq(<4 x float> %225)
  %227 = bitcast <4 x i32> %226 to <2 x i64>
  %228 = fmul <4 x float> %217, %224
  %229 = tail call <4 x i32> @llvm.x86.sse2.cvtps2dq(<4 x float> %228)
  %230 = fmul <4 x float> %205, %224
  %231 = tail call <4 x i32> @llvm.x86.sse2.cvtps2dq(<4 x float> %230)
  %232 = and <2 x i64> %227, splat (i64 281470681808895)
  %233 = shl <4 x i32> %231, splat (i32 16)
  %234 = bitcast <4 x i32> %233 to <2 x i64>
  %235 = or disjoint <2 x i64> %232, %234
  %236 = bitcast <2 x i64> %235 to <8 x i16>
  %237 = bitcast <4 x i32> %229 to <8 x i16>
  %238 = and <8 x i16> %237, <i16 -1, i16 0, i16 -1, i16 0, i16 -1, i16 0, i16 -1, i16 0>
  %239 = shufflevector <8 x i16> %236, <8 x i16> %238, <8 x i32> <i32 0, i32 8, i32 1, i32 9, i32 2, i32 10, i32 3, i32 11>
  %240 = bitcast <8 x i16> %239 to <2 x i64>
  %241 = shufflevector <8 x i16> %236, <8 x i16> %238, <8 x i32> <i32 4, i32 12, i32 5, i32 13, i32 6, i32 14, i32 7, i32 15>
  %242 = bitcast <8 x i16> %241 to <2 x i64>
  %243 = bitcast <4 x float> %.0..0. to <2 x i64>
  %244 = and <2 x i64> %243, splat (i64 -281474976710656)
  %245 = or disjoint <2 x i64> %244, %240
  %246 = bitcast <4 x float> %.16..16. to <2 x i64>
  %247 = and <2 x i64> %246, splat (i64 -281474976710656)
  %248 = or disjoint <2 x i64> %247, %242
  store <2 x i64> %245, ptr %4, align 16, !tbaa !4
  %.16..16..sroa_idx13 = getelementptr inbounds nuw i8, ptr %4, i64 16
  store <2 x i64> %248, ptr %.16..16..sroa_idx13, align 16, !tbaa !4
  br label %_ZN7meshoptL19decodeFilterOctSimdEPsm.exit, !llvm.loop !9

_ZN7meshoptL19decodeFilterOctSimdEPsm.exit:       ; preds = %.lr.ph.i, %187
  call void @llvm.memcpy.p0.p0.i64(ptr align 2 %190, ptr nonnull align 16 %4, i64 %189, i1 false)
  call void @llvm.lifetime.end.p0(i64 32, ptr nonnull %4)
  br label %_ZN7meshoptL12dispatchSimdIaEEvPFvPT_mES2_mm.exit

_ZN7meshoptL12dispatchSimdIaEEvPFvPT_mES2_mm.exit: ; preds = %_ZN7meshoptL19decodeFilterOctSimdEPsm.exit, %_ZN7meshoptL19decodeFilterOctSimdEPsm.exit11, %_ZN7meshoptL19decodeFilterOctSimdEPam.exit23.i, %_ZN7meshoptL19decodeFilterOctSimdEPam.exit.i
  ret void
}